; ModuleID = '29/86.c'
source_filename = "29/86.c"
target datalayout = "e-m:e-p270:32:32-p271:32:32-p272:64:64-i64:64-f80:128-n8:16:32:64-S128"
target triple = "x86_64-pc-linux-gnu"

@.str = private unnamed_addr constant [3 x i8] c"%d\00", align 1
@.str.1 = private unnamed_addr constant [7 x i8] c"%.3lf\0A\00", align 1

; Function Attrs: noinline nounwind uwtable
define dso_local i32 @main() #0 {
  %1 = alloca i32, align 4
  %2 = alloca i32, align 4
  %3 = alloca i32, align 4
  %4 = alloca i32, align 4
  %5 = alloca i32, align 4
  %6 = alloca i32, align 4
  %7 = alloca i32, align 4
  %8 = alloca i32, align 4
  %9 = alloca i32, align 4
  %10 = alloca i32, align 4
  %11 = alloca i32, align 4
  %12 = alloca double, align 8
  store i32 0, i32* %1, align 4
  store double 0.000000e+00, double* %12, align 8
  %13 = call i32 (i8*, ...) @__isoc99_scanf(i8* getelementptr inbounds ([3 x i8], [3 x i8]* @.str, i64 0, i64 0), i32* %2)
  store i32 0, i32* %4, align 4
  br label %14

14:                                               ; preds = %69, %0
  %15 = load i32, i32* %4, align 4
  %16 = load i32, i32* %2, align 4
  %17 = icmp slt i32 %15, %16
  br i1 %17, label %18, label %72

18:                                               ; preds = %14
  %19 = call i32 (i8*, ...) @__isoc99_scanf(i8* getelementptr inbounds ([3 x i8], [3 x i8]* @.str, i64 0, i64 0), i32* %3)
  store i32 2, i32* %6, align 4
  store i32 3, i32* %8, align 4
  store i32 1, i32* %9, align 4
  store i32 2, i32* %11, align 4
  %20 = load i32, i32* %3, align 4
  %21 = icmp eq i32 %20, 1
  br i1 %21, label %22, label %23

22:                                               ; preds = %18
  store double 2.000000e+00, double* %12, align 8
  br label %66

23:                                               ; preds = %18
  %24 = load i32, i32* %3, align 4
  %25 = icmp eq i32 %24, 2
  br i1 %25, label %26, label %27

26:                                               ; preds = %23
  store double 3.500000e+00, double* %12, align 8
  br label %65

27:                                               ; preds = %23
  %28 = load i32, i32* %6, align 4
  %29 = sitofp i32 %28 to double
  %30 = load i32, i32* %9, align 4
  %31 = sitofp i32 %30 to double
  %32 = fdiv double %29, %31
  %33 = load i32, i32* %8, align 4
  %34 = sitofp i32 %33 to double
  %35 = load i32, i32* %11, align 4
  %36 = sitofp i32 %35 to double
  %37 = fdiv double %34, %36
  %38 = fadd double %32, %37
  store double %38, double* %12, align 8
  store i32 2, i32* %5, align 4
  br label %39

39:                                               ; preds = %61, %27
  %40 = load i32, i32* %5, align 4
  %41 = load i32, i32* %3, align 4
  %42 = icmp slt i32 %40, %41
  br i1 %42, label %43, label %64

43:                                               ; preds = %39
  %44 = load i32, i32* %8, align 4
  store i32 %44, i32* %7, align 4
  %45 = load i32, i32* %6, align 4
  %46 = load i32, i32* %8, align 4
  %47 = add nsw i32 %45, %46
  store i32 %47, i32* %8, align 4
  %48 = load i32, i32* %7, align 4
  store i32 %48, i32* %6, align 4
  %49 = load i32, i32* %11, align 4
  store i32 %49, i32* %10, align 4
  %50 = load i32, i32* %9, align 4
  %51 = load i32, i32* %11, align 4
  %52 = add nsw i32 %50, %51
  store i32 %52, i32* %11, align 4
  %53 = load i32, i32* %10, align 4
  store i32 %53, i32* %9, align 4
  %54 = load double, double* %12, align 8
  %55 = load i32, i32* %8, align 4
  %56 = sitofp i32 %55 to double
  %57 = load i32, i32* %11, align 4
  %58 = sitofp i32 %57 to double
  %59 = fdiv double %56, %58
  %60 = fadd double %54, %59
  store double %60, double* %12, align 8
  br label %61

61:                                               ; preds = %43
  %62 = load i32, i32* %5, align 4
  %63 = add nsw i32 %62, 1
  store i32 %63, i32* %5, align 4
  br label %39

64:                                               ; preds = %39
  br label %65

65:                                               ; preds = %64, %26
  br label %66

66:                                               ; preds = %65, %22
  %67 = load double, double* %12, align 8
  %68 = call i32 (i8*, ...) @printf(i8* getelementptr inbounds ([7 x i8], [7 x i8]* @.str.1, i64 0, i64 0), double %67)
  br label %69

69:                                               ; preds = %66
  %70 = load i32, i32* %4, align 4
  %71 = add nsw i32 %70, 1
  store i32 %71, i32* %4, align 4
  br label %14

72:                                               ; preds = %14
  ret i32 0
}

declare dso_local i32 @__isoc99_scanf(i8*, ...) #1

declare dso_local i32 @printf(i8*, ...) #1


!llvm.module.flags = !{!0}
!llvm.ident = !{!1}

!0 = !{i32 1, !"wchar_size", i32 4}
!1 = !{!"clang version 10.0.0-4ubuntu1 "}
